target datalayout = "e-m:e-p270:32:32-p271:32:32-p272:64:64-i64:64-i128:128-f80:128-n8:16:32:64-S128"
target triple = "x86_64-pc-linux-gnu"

%struct.H5P_libclass_t = type { ptr, i32, ptr, ptr, ptr, ptr, ptr, ptr, ptr, ptr, ptr, ptr, ptr }
%struct.H5VL_loc_params_t = type { i32, i32, %union.anon.0 }
%union.anon.0 = type { %struct.H5VL_loc_by_idx }
%struct.H5VL_loc_by_idx = type { ptr, i32, i32, i64, i64 }

@.str = private unnamed_addr constant [97 x i8] c"generated/home/dtcxzyw/WorkSpace/Projects/compilers/llvm-opt-benchmark/bench/hdf5/hdf5/src/H5A.c\00", align 1
@H5E_CANTSET_g = external global i64, align 8
@H5E_ATTR_g = external global i64, align 8
@H5E_CANTOPENOBJ_g = external global i64, align 8
@H5E_ARGS_g = external global i64, align 8
@H5E_BADTYPE_g = external global i64, align 8
@H5E_BADVALUE_g = external global i64, align 8
@.str.43 = private unnamed_addr constant [39 x i8] c"location is not valid for an attribute\00", align 1
@.str.46 = private unnamed_addr constant [29 x i8] c"invalid index type specified\00", align 1
@.str.47 = private unnamed_addr constant [34 x i8] c"invalid iteration order specified\00", align 1
@.str.54 = private unnamed_addr constant [15 x i8] c"no object name\00", align 1
@H5P_CLS_AACC = external constant [1 x %struct.H5P_libclass_t], align 16
@.str.88 = private unnamed_addr constant [34 x i8] c"can't set object access arguments\00", align 1
@.str.92 = private unnamed_addr constant [46 x i8] c"can't set attribute access property list info\00", align 1
@__func__.H5A__open_by_idx_api_common = private unnamed_addr constant [28 x i8] c"H5A__open_by_idx_api_common\00", align 1
@.str.94 = private unnamed_addr constant [25 x i8] c"unable to open attribute\00", align 1

; Function Attrs: nounwind uwtable
define internal i64 @H5A__open_by_idx_api_common(i64 noundef %0, ptr noundef %1, i32 noundef %2, i32 noundef %3, i64 noundef %4, i64 noundef %5, i64 noundef %6, ptr noundef %7, ptr noundef %8) #0 {
  %10 = alloca i64, align 8
  %11 = alloca ptr, align 8
  %12 = alloca i32, align 4
  %13 = alloca i32, align 4
  %14 = alloca i64, align 8
  %15 = alloca i64, align 8
  %16 = alloca i64, align 8
  %17 = alloca ptr, align 8
  %18 = alloca ptr, align 8
  %19 = alloca ptr, align 8
  %20 = alloca ptr, align 8
  %21 = alloca %struct.H5VL_loc_params_t, align 8
  %22 = alloca i64, align 8
  %23 = alloca i8, align 1
  store i64 %0, ptr %10, align 8
  store ptr %1, ptr %11, align 8
  store i32 %2, ptr %12, align 4
  store i32 %3, ptr %13, align 4
  store i64 %4, ptr %14, align 8
  store i64 %5, ptr %15, align 8
  store i64 %6, ptr %16, align 8
  store ptr %7, ptr %17, align 8
  store ptr %8, ptr %18, align 8
  store ptr null, ptr %19, align 8
  %24 = load ptr, ptr %18, align 8
  %25 = icmp ne ptr %24, null
  br i1 %25, label %26, label %28

26:                                               ; preds = %9
  %27 = load ptr, ptr %18, align 8
  br label %29

28:                                               ; preds = %9
  br label %29

29:                                               ; preds = %28, %26
  %30 = phi ptr [ %27, %26 ], [ %19, %28 ]
  store ptr %30, ptr %20, align 8
  store i64 -1, ptr %22, align 8
  store i8 0, ptr %23, align 1
  %31 = load i64, ptr %10, align 8
  %32 = call i32 @H5I_get_type(i64 noundef %31)
  %33 = icmp eq i32 7, %32
  br i1 %33, label %34, label %49

34:                                               ; preds = %29
  br label %35

35:                                               ; preds = %34
  br label %36

36:                                               ; preds = %35
  br label %37

37:                                               ; preds = %36
  %38 = load i64, ptr @H5E_ARGS_g, align 8
  %39 = load i64, ptr @H5E_BADTYPE_g, align 8
  %40 = call i32 (ptr, ptr, i32, i64, i64, ptr, ...) @H5E_printf_stack(ptr noundef @.str, ptr noundef @__func__.H5A__open_by_idx_api_common, i32 noundef 742, i64 noundef %38, i64 noundef %39, ptr noundef @.str.43)
  br label %41

41:                                               ; preds = %37
  store i8 1, ptr %23, align 1
  %42 = load i8, ptr %23, align 1
  %43 = trunc i8 %42 to i1
  %44 = zext i1 %43 to i8
  store i8 %44, ptr %23, align 1
  br label %45

45:                                               ; preds = %41
  br label %46

46:                                               ; preds = %45
  store i64 -1, ptr %22, align 8
  br label %180

47:                                               ; No predecessors!
  br label %48

48:                                               ; preds = %47
  br label %49

49:                                               ; preds = %48, %29
  %50 = load ptr, ptr %11, align 8
  %51 = icmp ne ptr %50, null
  br i1 %51, label %52, label %56

52:                                               ; preds = %49
  %53 = load ptr, ptr %11, align 8
  %54 = load i8, ptr %53, align 1
  %55 = icmp ne i8 %54, 0
  br i1 %55, label %71, label %56

56:                                               ; preds = %52, %49
  br label %57

57:                                               ; preds = %56
  br label %58

58:                                               ; preds = %57
  br label %59

59:                                               ; preds = %58
  %60 = load i64, ptr @H5E_ARGS_g, align 8
  %61 = load i64, ptr @H5E_BADVALUE_g, align 8
  %62 = call i32 (ptr, ptr, i32, i64, i64, ptr, ...) @H5E_printf_stack(ptr noundef @.str, ptr noundef @__func__.H5A__open_by_idx_api_common, i32 noundef 744, i64 noundef %60, i64 noundef %61, ptr noundef @.str.54)
  br label %63

63:                                               ; preds = %59
  store i8 1, ptr %23, align 1
  %64 = load i8, ptr %23, align 1
  %65 = trunc i8 %64 to i1
  %66 = zext i1 %65 to i8
  store i8 %66, ptr %23, align 1
  br label %67

67:                                               ; preds = %63
  br label %68

68:                                               ; preds = %67
  store i64 -1, ptr %22, align 8
  br label %180

69:                                               ; No predecessors!
  br label %70

70:                                               ; preds = %69
  br label %71

71:                                               ; preds = %70, %52
  %72 = load i32, ptr %12, align 4
  %73 = icmp sle i32 %72, -1
  br i1 %73, label %77, label %74

74:                                               ; preds = %71
  %75 = load i32, ptr %12, align 4
  %76 = icmp sge i32 %75, 2
  br i1 %76, label %77, label %92

77:                                               ; preds = %74, %71
  br label %78

78:                                               ; preds = %77
  br label %79

79:                                               ; preds = %78
  br label %80

80:                                               ; preds = %79
  %81 = load i64, ptr @H5E_ARGS_g, align 8
  %82 = load i64, ptr @H5E_BADVALUE_g, align 8
  %83 = call i32 (ptr, ptr, i32, i64, i64, ptr, ...) @H5E_printf_stack(ptr noundef @.str, ptr noundef @__func__.H5A__open_by_idx_api_common, i32 noundef 746, i64 noundef %81, i64 noundef %82, ptr noundef @.str.46)
  br label %84

84:                                               ; preds = %80
  store i8 1, ptr %23, align 1
  %85 = load i8, ptr %23, align 1
  %86 = trunc i8 %85 to i1
  %87 = zext i1 %86 to i8
  store i8 %87, ptr %23, align 1
  br label %88

88:                                               ; preds = %84
  br label %89

89:                                               ; preds = %88
  store i64 -1, ptr %22, align 8
  br label %180

90:                                               ; No predecessors!
  br label %91

91:                                               ; preds = %90
  br label %92

92:                                               ; preds = %91, %74
  %93 = load i32, ptr %13, align 4
  %94 = icmp sle i32 %93, -1
  br i1 %94, label %98, label %95

95:                                               ; preds = %92
  %96 = load i32, ptr %13, align 4
  %97 = icmp sge i32 %96, 3
  br i1 %97, label %98, label %113

98:                                               ; preds = %95, %92
  br label %99

99:                                               ; preds = %98
  br label %100

100:                                              ; preds = %99
  br label %101

101:                                              ; preds = %100
  %102 = load i64, ptr @H5E_ARGS_g, align 8
  %103 = load i64, ptr @H5E_BADVALUE_g, align 8
  %104 = call i32 (ptr, ptr, i32, i64, i64, ptr, ...) @H5E_printf_stack(ptr noundef @.str, ptr noundef @__func__.H5A__open_by_idx_api_common, i32 noundef 748, i64 noundef %102, i64 noundef %103, ptr noundef @.str.47)
  br label %105

105:                                              ; preds = %101
  store i8 1, ptr %23, align 1
  %106 = load i8, ptr %23, align 1
  %107 = trunc i8 %106 to i1
  %108 = zext i1 %107 to i8
  store i8 %108, ptr %23, align 1
  br label %109

109:                                              ; preds = %105
  br label %110

110:                                              ; preds = %109
  store i64 -1, ptr %22, align 8
  br label %180

111:                                              ; No predecessors!
  br label %112

112:                                              ; preds = %111
  br label %113

113:                                              ; preds = %112, %95
  %114 = load i64, ptr %10, align 8
  %115 = load ptr, ptr %11, align 8
  %116 = load i32, ptr %12, align 4
  %117 = load i32, ptr %13, align 4
  %118 = load i64, ptr %14, align 8
  %119 = load i64, ptr %16, align 8
  %120 = load ptr, ptr %20, align 8
  %121 = call i32 @H5VL_setup_idx_args(i64 noundef %114, ptr noundef %115, i32 noundef %116, i32 noundef %117, i64 noundef %118, i1 noundef zeroext false, i64 noundef %119, ptr noundef %120, ptr noundef %21)
  %122 = icmp slt i32 %121, 0
  br i1 %122, label %123, label %138

123:                                              ; preds = %113
  br label %124

124:                                              ; preds = %123
  br label %125

125:                                              ; preds = %124
  br label %126

126:                                              ; preds = %125
  %127 = load i64, ptr @H5E_ATTR_g, align 8
  %128 = load i64, ptr @H5E_CANTSET_g, align 8
  %129 = call i32 (ptr, ptr, i32, i64, i64, ptr, ...) @H5E_printf_stack(ptr noundef @.str, ptr noundef @__func__.H5A__open_by_idx_api_common, i32 noundef 753, i64 noundef %127, i64 noundef %128, ptr noundef @.str.88)
  br label %130

130:                                              ; preds = %126
  store i8 1, ptr %23, align 1
  %131 = load i8, ptr %23, align 1
  %132 = trunc i8 %131 to i1
  %133 = zext i1 %132 to i8
  store i8 %133, ptr %23, align 1
  br label %134

134:                                              ; preds = %130
  br label %135

135:                                              ; preds = %134
  store i64 -1, ptr %22, align 8
  br label %180

136:                                              ; No predecessors!
  br label %137

137:                                              ; preds = %136
  br label %138

138:                                              ; preds = %137, %113
  %139 = load i64, ptr %10, align 8
  %140 = call i32 @H5CX_set_apl(ptr noundef %15, ptr noundef @H5P_CLS_AACC, i64 noundef %139, i1 noundef zeroext false)
  %141 = icmp slt i32 %140, 0
  br i1 %141, label %142, label %157

142:                                              ; preds = %138
  br label %143

143:                                              ; preds = %142
  br label %144

144:                                              ; preds = %143
  br label %145

145:                                              ; preds = %144
  %146 = load i64, ptr @H5E_ATTR_g, align 8
  %147 = load i64, ptr @H5E_CANTSET_g, align 8
  %148 = call i32 (ptr, ptr, i32, i64, i64, ptr, ...) @H5E_printf_stack(ptr noundef @.str, ptr noundef @__func__.H5A__open_by_idx_api_common, i32 noundef 757, i64 noundef %146, i64 noundef %147, ptr noundef @.str.92)
  br label %149

149:                                              ; preds = %145
  store i8 1, ptr %23, align 1
  %150 = load i8, ptr %23, align 1
  %151 = trunc i8 %150 to i1
  %152 = zext i1 %151 to i8
  store i8 %152, ptr %23, align 1
  br label %153

153:                                              ; preds = %149
  br label %154

154:                                              ; preds = %153
  store i64 -1, ptr %22, align 8
  br label %180

155:                                              ; No predecessors!
  br label %156

156:                                              ; preds = %155
  br label %157

157:                                              ; preds = %156, %138
  %158 = load ptr, ptr %20, align 8
  %159 = load ptr, ptr %158, align 8
  %160 = load i64, ptr %15, align 8
  %161 = load ptr, ptr %17, align 8
  %162 = call i64 @H5A__open_common(ptr noundef %159, ptr noundef %21, ptr noundef null, i64 noundef %160, ptr noundef %161)
  store i64 %162, ptr %22, align 8
  %163 = icmp slt i64 %162, 0
  br i1 %163, label %164, label %179

164:                                              ; preds = %157
  br label %165

165:                                              ; preds = %164
  br label %166

166:                                              ; preds = %165
  br label %167

167:                                              ; preds = %166
  %168 = load i64, ptr @H5E_ATTR_g, align 8
  %169 = load i64, ptr @H5E_CANTOPENOBJ_g, align 8
  %170 = call i32 (ptr, ptr, i32, i64, i64, ptr, ...) @H5E_printf_stack(ptr noundef @.str, ptr noundef @__func__.H5A__open_by_idx_api_common, i32 noundef 761, i64 noundef %168, i64 noundef %169, ptr noundef @.str.94)
  br label %171

171:                                              ; preds = %167
  store i8 1, ptr %23, align 1
  %172 = load i8, ptr %23, align 1
  %173 = trunc i8 %172 to i1
  %174 = zext i1 %173 to i8
  store i8 %174, ptr %23, align 1
  br label %175

175:                                              ; preds = %171
  br label %176

176:                                              ; preds = %175
  store i64 -1, ptr %22, align 8
  br label %180

177:                                              ; No predecessors!
  br label %178

178:                                              ; preds = %177
  br label %179

179:                                              ; preds = %178, %157
  br label %180

180:                                              ; preds = %179, %176, %154, %135, %110, %89, %68, %46
  %181 = load i64, ptr %22, align 8
  ret i64 %181
}