; Function Attrs: nounwind uwtable
define internal fastcc range(i64 -1, -9223372036854775808) i64 @H5A__open_by_idx_api_common(i64 noundef %0, ptr noundef %1, i32 noundef %2, i32 noundef %3, i64 noundef %4, i64 noundef %5, i64 noundef %6, ptr noundef %7, ptr noundef %8) unnamed_addr #0 {
  %10 = alloca i64, align 8
  %11 = alloca ptr, align 8
  %12 = alloca %struct.H5VL_loc_params_t, align 8
  store i64 %5, ptr %10, align 8
  store ptr null, ptr %11, align 8
  %.not = icmp eq ptr %8, null
  %13 = select i1 %.not, ptr %11, ptr %8
  %14 = tail call i32 @H5I_get_type(i64 noundef %0) #4
  %15 = icmp eq i32 %14, 7
  br i1 %15, label %16, label %20

16:                                               ; preds = %9
  %17 = load i64, ptr @H5E_ARGS_g, align 8
  %18 = load i64, ptr @H5E_BADTYPE_g, align 8
  %19 = tail call i32 (ptr, ptr, i32, i64, i64, ptr, ...) @H5E_printf_stack(ptr noundef nonnull @.str, ptr noundef nonnull @__func__.H5A__open_by_idx_api_common, i32 noundef 742, i64 noundef %17, i64 noundef %18, ptr noundef nonnull @.str.43) #4
  br label %60

20:                                               ; preds = %9
  %.not33 = icmp eq ptr %1, null
  br i1 %.not33, label %23, label %21

21:                                               ; preds = %20
  %22 = load i8, ptr %1, align 1
  %.not34 = icmp eq i8 %22, 0
  br i1 %.not34, label %23, label %27

23:                                               ; preds = %20, %21
  %24 = load i64, ptr @H5E_ARGS_g, align 8
  %25 = load i64, ptr @H5E_BADVALUE_g, align 8
  %26 = tail call i32 (ptr, ptr, i32, i64, i64, ptr, ...) @H5E_printf_stack(ptr noundef nonnull @.str, ptr noundef nonnull @__func__.H5A__open_by_idx_api_common, i32 noundef 744, i64 noundef %24, i64 noundef %25, ptr noundef nonnull @.str.54) #4
  br label %60

27:                                               ; preds = %21
  %or.cond = icmp ugt i32 %2, 1
  br i1 %or.cond, label %28, label %32

28:                                               ; preds = %27
  %29 = load i64, ptr @H5E_ARGS_g, align 8
  %30 = load i64, ptr @H5E_BADVALUE_g, align 8
  %31 = tail call i32 (ptr, ptr, i32, i64, i64, ptr, ...) @H5E_printf_stack(ptr noundef nonnull @.str, ptr noundef nonnull @__func__.H5A__open_by_idx_api_common, i32 noundef 746, i64 noundef %29, i64 noundef %30, ptr noundef nonnull @.str.46) #4
  br label %60

32:                                               ; preds = %27
  %or.cond3 = icmp ugt i32 %3, 2
  br i1 %or.cond3, label %33, label %37

33:                                               ; preds = %32
  %34 = load i64, ptr @H5E_ARGS_g, align 8
  %35 = load i64, ptr @H5E_BADVALUE_g, align 8
  %36 = tail call i32 (ptr, ptr, i32, i64, i64, ptr, ...) @H5E_printf_stack(ptr noundef nonnull @.str, ptr noundef nonnull @__func__.H5A__open_by_idx_api_common, i32 noundef 748, i64 noundef %34, i64 noundef %35, ptr noundef nonnull @.str.47) #4
  br label %60

37:                                               ; preds = %32
  %38 = call i32 @H5VL_setup_idx_args(i64 noundef %0, ptr noundef nonnull %1, i32 noundef %2, i32 noundef %3, i64 noundef %4, i1 noundef zeroext false, i64 noundef %6, ptr noundef nonnull %13, ptr noundef nonnull %12) #4
  %39 = icmp slt i32 %38, 0
  br i1 %39, label %40, label %44

40:                                               ; preds = %37
  %41 = load i64, ptr @H5E_ATTR_g, align 8
  %42 = load i64, ptr @H5E_CANTSET_g, align 8
  %43 = call i32 (ptr, ptr, i32, i64, i64, ptr, ...) @H5E_printf_stack(ptr noundef nonnull @.str, ptr noundef nonnull @__func__.H5A__open_by_idx_api_common, i32 noundef 753, i64 noundef %41, i64 noundef %42, ptr noundef nonnull @.str.88) #4
  br label %60

44:                                               ; preds = %37
  %45 = call i32 @H5CX_set_apl(ptr noundef nonnull %10, ptr noundef nonnull @H5P_CLS_AACC, i64 noundef %0, i1 noundef zeroext false) #4
  %46 = icmp slt i32 %45, 0
  br i1 %46, label %47, label %51

47:                                               ; preds = %44
  %48 = load i64, ptr @H5E_ATTR_g, align 8
  %49 = load i64, ptr @H5E_CANTSET_g, align 8
  %50 = call i32 (ptr, ptr, i32, i64, i64, ptr, ...) @H5E_printf_stack(ptr noundef nonnull @.str, ptr noundef nonnull @__func__.H5A__open_by_idx_api_common, i32 noundef 757, i64 noundef %48, i64 noundef %49, ptr noundef nonnull @.str.92) #4
  br label %60

51:                                               ; preds = %44
  %52 = load ptr, ptr %13, align 8
  %53 = load i64, ptr %10, align 8
  %54 = call fastcc i64 @H5A__open_common(ptr noundef %52, ptr noundef nonnull %12, ptr noundef null, i64 noundef %53, ptr noundef %7)
  %55 = icmp slt i64 %54, 0
  br i1 %55, label %56, label %60

56:                                               ; preds = %51
  %57 = load i64, ptr @H5E_ATTR_g, align 8
  %58 = load i64, ptr @H5E_CANTOPENOBJ_g, align 8
  %59 = call i32 (ptr, ptr, i32, i64, i64, ptr, ...) @H5E_printf_stack(ptr noundef nonnull @.str, ptr noundef nonnull @__func__.H5A__open_by_idx_api_common, i32 noundef 761, i64 noundef %57, i64 noundef %58, ptr noundef nonnull @.str.94) #4
  br label %60

60:                                               ; preds = %51, %56, %47, %40, %33, %28, %23, %16
  %.0 = phi i64 [ -1, %16 ], [ -1, %28 ], [ -1, %33 ], [ -1, %40 ], [ -1, %47 ], [ -1, %56 ], [ %54, %51 ], [ -1, %23 ]
  ret i64 %.0
}